target datalayout = "e-m:e-p270:32:32-p271:32:32-p272:64:64-i64:64-i128:128-f80:128-n8:16:32:64-S128"
target triple = "x86_64-pc-linux-gnu"

%"class.smt::theory_sls" = type { %"class.smt::theory.base", %"class.sls::smt_context", %"struct.smt::theory_sls::stats", %class.ref, ptr, i32, i8, i8, i32, i32, i32, i32, i32, i32, i32, i32, i8, i32, i32, i32, i32, i32, i32, i8, %class.statistics, %class.vector.5 }
%"class.smt::theory.base" = type <{ ptr, i32, [4 x i8], ptr, ptr, %class.ptr_vector, %class.svector, i32, i8 }>
%class.ptr_vector = type { %class.vector }
%class.vector = type { ptr }
%class.svector = type { %class.vector.0 }
%class.vector.0 = type { ptr }
%"class.sls::smt_context" = type { ptr }
%"struct.smt::theory_sls::stats" = type { i32, i32 }
%class.ref = type { ptr }
%class.statistics = type { %class.svector.1, %class.svector.3 }
%class.svector.1 = type { %class.vector.2 }
%class.vector.2 = type { ptr }
%class.svector.3 = type { %class.vector.4 }
%class.vector.4 = type { ptr }
%class.vector.5 = type { ptr }
%class.ptr_vector.44 = type { %class.vector.45 }
%class.vector.45 = type { ptr }
%class.model_core = type { ptr, ptr, i32, [4 x i8], %class.obj_map.304, %class.obj_map.309, %class.ptr_vector.44, %class.ptr_vector.44, %class.ptr_vector.44 }
%class.obj_map.304 = type { %class.core_hashtable.305 }
%class.core_hashtable.305 = type <{ ptr, i32, i32, i32, [4 x i8] }>
%class.obj_map.309 = type { %class.core_hashtable.310 }
%class.core_hashtable.310 = type <{ ptr, i32, i32, i32, [4 x i8] }>

@.str.5 = private unnamed_addr constant [22 x i8] c"sls-num-guided-search\00", align 1
@.str.6 = private unnamed_addr constant [23 x i8] c"sls-num-restart-search\00", align 1

; Function Attrs: mustprogress uwtable
define linkonce_odr hidden void @_Z7deallocI10model_coreEvPT_(ptr noundef %0) #6 comdat {
  %2 = alloca ptr, align 8
  store ptr %0, ptr %2, align 8, !tbaa !813
  %3 = load ptr, ptr %2, align 8, !tbaa !813
  %4 = icmp eq ptr %3, null
  br i1 %4, label %5, label %6

5:                                                ; preds = %1
  br label %12

6:                                                ; preds = %1
  %7 = load ptr, ptr %2, align 8, !tbaa !813
  %8 = load ptr, ptr %7, align 8, !tbaa !32
  %9 = getelementptr inbounds ptr, ptr %8, i64 0
  %10 = load ptr, ptr %9, align 8
  call void %10(ptr noundef nonnull align 8 dereferenceable(96) %7) #3
  %11 = load ptr, ptr %2, align 8, !tbaa !813
  call void @_ZN6memory10deallocateEPv(ptr noundef %11)
  br label %12

12:                                               ; preds = %6, %5
  ret void
}

; Function Attrs: mustprogress uwtable
define linkonce_odr hidden void @_ZN10model_core7dec_refEv(ptr noundef nonnull align 8 dereferenceable(96) %0) #6 comdat align 2 {
  %2 = alloca ptr, align 8
  store ptr %0, ptr %2, align 8, !tbaa !813
  %3 = load ptr, ptr %2, align 8
  %4 = getelementptr inbounds nuw %class.model_core, ptr %3, i32 0, i32 2
  %5 = load i32, ptr %4, align 8, !tbaa !815
  %6 = add i32 %5, -1
  store i32 %6, ptr %4, align 8, !tbaa !815
  %7 = getelementptr inbounds nuw %class.model_core, ptr %3, i32 0, i32 2
  %8 = load i32, ptr %7, align 8, !tbaa !815
  %9 = icmp eq i32 %8, 0
  br i1 %9, label %10, label %11

10:                                               ; preds = %1
  call void @_Z7deallocI10model_coreEvPT_(ptr noundef %3)
  br label %11

11:                                               ; preds = %10, %1
  ret void
}

; Function Attrs: mustprogress uwtable
define linkonce_odr hidden void @_ZN3refI5modelE7dec_refEv(ptr noundef nonnull align 8 dereferenceable(8) %0) #6 comdat align 2 {
  %2 = alloca ptr, align 8
  store ptr %0, ptr %2, align 8, !tbaa !559
  %3 = load ptr, ptr %2, align 8
  %4 = getelementptr inbounds nuw %class.ref, ptr %3, i32 0, i32 0
  %5 = load ptr, ptr %4, align 8, !tbaa !561
  %6 = icmp ne ptr %5, null
  br i1 %6, label %7, label %10

7:                                                ; preds = %1
  %8 = getelementptr inbounds nuw %class.ref, ptr %3, i32 0, i32 0
  %9 = load ptr, ptr %8, align 8, !tbaa !561
  call void @_ZN10model_core7dec_refEv(ptr noundef nonnull align 8 dereferenceable(96) %9)
  br label %10

10:                                               ; preds = %7, %1
  ret void
}

; Function Attrs: mustprogress nounwind uwtable
define linkonce_odr hidden void @_ZN10model_core7inc_refEv(ptr noundef nonnull align 8 dereferenceable(96) %0) #4 comdat align 2 {
  %2 = alloca ptr, align 8
  store ptr %0, ptr %2, align 8, !tbaa !813
  %3 = load ptr, ptr %2, align 8
  %4 = getelementptr inbounds nuw %class.model_core, ptr %3, i32 0, i32 2
  %5 = load i32, ptr %4, align 8, !tbaa !815
  %6 = add i32 %5, 1
  store i32 %6, ptr %4, align 8, !tbaa !815
  ret void
}

; Function Attrs: mustprogress uwtable
define linkonce_odr hidden noundef nonnull align 8 dereferenceable(8) ptr @_ZN3refI5modelEaSEPS0_(ptr noundef nonnull align 8 dereferenceable(8) %0, ptr noundef %1) #6 comdat align 2 {
  %3 = alloca ptr, align 8
  %4 = alloca ptr, align 8
  store ptr %0, ptr %3, align 8, !tbaa !559
  store ptr %1, ptr %4, align 8, !tbaa !579
  %5 = load ptr, ptr %3, align 8
  %6 = load ptr, ptr %4, align 8, !tbaa !579
  %7 = icmp ne ptr %6, null
  br i1 %7, label %8, label %10

8:                                                ; preds = %2
  %9 = load ptr, ptr %4, align 8, !tbaa !579
  call void @_ZN10model_core7inc_refEv(ptr noundef nonnull align 8 dereferenceable(96) %9)
  br label %10

10:                                               ; preds = %8, %2
  call void @_ZN3refI5modelE7dec_refEv(ptr noundef nonnull align 8 dereferenceable(8) %5)
  %11 = load ptr, ptr %4, align 8, !tbaa !579
  %12 = getelementptr inbounds nuw %class.ref, ptr %5, i32 0, i32 0
  store ptr %11, ptr %12, align 8, !tbaa !561
  ret ptr %5
}

; Function Attrs: mustprogress uwtable
define hidden void @_ZNK3smt10theory_sls8finalizeEv(ptr noundef nonnull align 8 dereferenceable(184) %0) #6 align 2 {
  %2 = alloca ptr, align 8
  store ptr %0, ptr %2, align 8, !tbaa !28
  %3 = load ptr, ptr %2, align 8
  %4 = getelementptr inbounds nuw %"class.smt::theory_sls", ptr %3, i32 0, i32 4
  %5 = load ptr, ptr %4, align 8, !tbaa !34
  %6 = icmp ne ptr %5, null
  br i1 %6, label %8, label %7

7:                                                ; preds = %1
  br label %17

8:                                                ; preds = %1
  %9 = getelementptr inbounds nuw %"class.smt::theory_sls", ptr %3, i32 0, i32 4
  %10 = load ptr, ptr %9, align 8, !tbaa !34
  %11 = getelementptr inbounds nuw %"class.smt::theory_sls", ptr %3, i32 0, i32 3
  %12 = getelementptr inbounds nuw %"class.smt::theory_sls", ptr %3, i32 0, i32 24
  call void @_ZN3sls10smt_plugin8finalizeER3refI5modelER10statistics(ptr noundef nonnull align 8 dereferenceable(3024) %10, ptr noundef nonnull align 8 dereferenceable(8) %11, ptr noundef nonnull align 8 dereferenceable(16) %12)
  %13 = getelementptr inbounds nuw %"class.smt::theory_sls", ptr %3, i32 0, i32 3
  %14 = call noundef nonnull align 8 dereferenceable(8) ptr @_ZN3refI5modelEaSEPS0_(ptr noundef nonnull align 8 dereferenceable(8) %13, ptr noundef null)
  %15 = getelementptr inbounds nuw %"class.smt::theory_sls", ptr %3, i32 0, i32 4
  store ptr null, ptr %15, align 8, !tbaa !34
  %16 = getelementptr inbounds nuw %"class.smt::theory_sls", ptr %3, i32 0, i32 23
  store i8 0, ptr %16, align 4, !tbaa !77
  br label %17

17:                                               ; preds = %8, %7
  ret void
}

; Function Attrs: mustprogress uwtable
define hidden void @_ZNK3smt10theory_sls18collect_statisticsER10statistics(ptr noundef nonnull align 8 dereferenceable(184) %0, ptr noundef nonnull align 8 dereferenceable(16) %1) unnamed_addr #6 align 2 {
  %3 = alloca ptr, align 8
  %4 = alloca ptr, align 8
  store ptr %0, ptr %3, align 8, !tbaa !28
  store ptr %1, ptr %4, align 8, !tbaa !562
  %5 = load ptr, ptr %3, align 8
  call void @_ZNK3smt10theory_sls8finalizeEv(ptr noundef nonnull align 8 dereferenceable(184) %5)
  %6 = load ptr, ptr %4, align 8, !tbaa !562
  %7 = getelementptr inbounds nuw %"class.smt::theory_sls", ptr %5, i32 0, i32 24
  call void @_ZN10statistics4copyERKS_(ptr noundef nonnull align 8 dereferenceable(16) %6, ptr noundef nonnull align 8 dereferenceable(16) %7)
  %8 = load ptr, ptr %4, align 8, !tbaa !562
  %9 = getelementptr inbounds nuw %"class.smt::theory_sls", ptr %5, i32 0, i32 2
  %10 = getelementptr inbounds nuw %"struct.smt::theory_sls::stats", ptr %9, i32 0, i32 0
  %11 = load i32, ptr %10, align 8, !tbaa !598
  call void @_ZN10statistics6updateEPKcj(ptr noundef nonnull align 8 dereferenceable(16) %8, ptr noundef @.str.5, i32 noundef %11)
  %12 = load ptr, ptr %4, align 8, !tbaa !562
  %13 = getelementptr inbounds nuw %"class.smt::theory_sls", ptr %5, i32 0, i32 2
  %14 = getelementptr inbounds nuw %"struct.smt::theory_sls::stats", ptr %13, i32 0, i32 1
  %15 = load i32, ptr %14, align 4, !tbaa !646
  call void @_ZN10statistics6updateEPKcj(ptr noundef nonnull align 8 dereferenceable(16) %12, ptr noundef @.str.6, i32 noundef %15)
  ret void
}