; Function Attrs: mustprogress uwtable
define hidden void @_ZNK3smt10theory_sls18collect_statisticsER10statistics(ptr noundef nonnull align 8 dereferenceable(184) %0, ptr noundef nonnull align 8 dereferenceable(16) %1) unnamed_addr #4 align 2 {
  %3 = getelementptr inbounds nuw i8, ptr %0, i64 80
  %4 = load ptr, ptr %3, align 8, !tbaa !522
  %.not.i = icmp eq ptr %4, null
  br i1 %.not.i, label %_ZNK3smt10theory_sls8finalizeEv.exit, label %5

5:                                                ; preds = %2
  %6 = getelementptr inbounds nuw i8, ptr %0, i64 72
  %7 = getelementptr inbounds nuw i8, ptr %0, i64 160
  tail call void @_ZN3sls10smt_plugin8finalizeER3refI5modelER10statistics(ptr noundef nonnull align 8 dereferenceable(3024) %4, ptr noundef nonnull align 8 dereferenceable(8) %6, ptr noundef nonnull align 8 dereferenceable(16) %7)
  %8 = load ptr, ptr %6, align 8, !tbaa !523
  %.not.i.i.i = icmp eq ptr %8, null
  br i1 %.not.i.i.i, label %_ZN3refI5modelEaSEPS0_.exit.i, label %9

9:                                                ; preds = %5
  %10 = getelementptr inbounds nuw i8, ptr %8, i64 16
  %11 = load i32, ptr %10, align 8, !tbaa !524
  %12 = add i32 %11, -1
  store i32 %12, ptr %10, align 8, !tbaa !524
  %13 = icmp eq i32 %12, 0
  br i1 %13, label %14, label %_ZN3refI5modelEaSEPS0_.exit.i

14:                                               ; preds = %9
  %15 = load ptr, ptr %8, align 8, !tbaa !504
  %16 = load ptr, ptr %15, align 8
  tail call void %16(ptr noundef nonnull align 8 dereferenceable(96) %8) #27
  tail call void @_ZN6memory10deallocateEPv(ptr noundef nonnull align 8 dereferenceable(96) %8)
  br label %_ZN3refI5modelEaSEPS0_.exit.i

_ZN3refI5modelEaSEPS0_.exit.i:                    ; preds = %14, %9, %5
  %17 = getelementptr inbounds nuw i8, ptr %0, i64 156
  store i8 0, ptr %17, align 4, !tbaa !532
  tail call void @llvm.memset.p0.i64(ptr noundef nonnull align 8 dereferenceable(16) %6, i8 0, i64 16, i1 false)
  br label %_ZNK3smt10theory_sls8finalizeEv.exit

_ZNK3smt10theory_sls8finalizeEv.exit:             ; preds = %2, %_ZN3refI5modelEaSEPS0_.exit.i
  %18 = getelementptr inbounds nuw i8, ptr %0, i64 160
  tail call void @_ZN10statistics4copyERKS_(ptr noundef nonnull align 8 dereferenceable(16) %1, ptr noundef nonnull align 8 dereferenceable(16) %18)
  %19 = getelementptr inbounds nuw i8, ptr %0, i64 64
  %20 = load i32, ptr %19, align 8, !tbaa !580
  tail call void @_ZN10statistics6updateEPKcj(ptr noundef nonnull align 8 dereferenceable(16) %1, ptr noundef nonnull @.str.5, i32 noundef %20)
  %21 = getelementptr inbounds nuw i8, ptr %0, i64 68
  %22 = load i32, ptr %21, align 4, !tbaa !629
  tail call void @_ZN10statistics6updateEPKcj(ptr noundef nonnull align 8 dereferenceable(16) %1, ptr noundef nonnull @.str.6, i32 noundef %22)
  ret void
}